target datalayout = "e-m:e-p270:32:32-p271:32:32-p272:64:64-i64:64-i128:128-f80:128-n8:16:32:64-S128"
target triple = "x86_64-pc-linux-gnu"

%"class.std::__cxx11::basic_string" = type { %"struct.std::__cxx11::basic_string<char>::_Alloc_hider", i64, %union.anon }
%"struct.std::__cxx11::basic_string<char>::_Alloc_hider" = type { ptr }
%union.anon = type { i64, [8 x i8] }
%"class.Assimp::Ogre::Mesh" = type { i8, %"class.std::__cxx11::basic_string", ptr, ptr, %"class.std::vector.54", %"class.std::vector.59", %"class.std::vector.64" }
%"class.std::vector.54" = type { %"struct.std::_Vector_base.55" }
%"struct.std::_Vector_base.55" = type { %"struct.std::_Vector_base<Assimp::Ogre::SubMesh *, std::allocator<Assimp::Ogre::SubMesh *>>::_Vector_impl" }
%"struct.std::_Vector_base<Assimp::Ogre::SubMesh *, std::allocator<Assimp::Ogre::SubMesh *>>::_Vector_impl" = type { %"struct.std::_Vector_base<Assimp::Ogre::SubMesh *, std::allocator<Assimp::Ogre::SubMesh *>>::_Vector_impl_data" }
%"struct.std::_Vector_base<Assimp::Ogre::SubMesh *, std::allocator<Assimp::Ogre::SubMesh *>>::_Vector_impl_data" = type { ptr, ptr, ptr }
%"class.std::vector.59" = type { %"struct.std::_Vector_base.60" }
%"struct.std::_Vector_base.60" = type { %"struct.std::_Vector_base<Assimp::Ogre::Animation *, std::allocator<Assimp::Ogre::Animation *>>::_Vector_impl" }
%"struct.std::_Vector_base<Assimp::Ogre::Animation *, std::allocator<Assimp::Ogre::Animation *>>::_Vector_impl" = type { %"struct.std::_Vector_base<Assimp::Ogre::Animation *, std::allocator<Assimp::Ogre::Animation *>>::_Vector_impl_data" }
%"struct.std::_Vector_base<Assimp::Ogre::Animation *, std::allocator<Assimp::Ogre::Animation *>>::_Vector_impl_data" = type { ptr, ptr, ptr }
%"class.std::vector.64" = type { %"struct.std::_Vector_base.65" }
%"struct.std::_Vector_base.65" = type { %"struct.std::_Vector_base<Assimp::Ogre::Pose *, std::allocator<Assimp::Ogre::Pose *>>::_Vector_impl" }
%"struct.std::_Vector_base<Assimp::Ogre::Pose *, std::allocator<Assimp::Ogre::Pose *>>::_Vector_impl" = type { %"struct.std::_Vector_base<Assimp::Ogre::Pose *, std::allocator<Assimp::Ogre::Pose *>>::_Vector_impl_data" }
%"struct.std::_Vector_base<Assimp::Ogre::Pose *, std::allocator<Assimp::Ogre::Pose *>>::_Vector_impl_data" = type { ptr, ptr, ptr }
%"class.Assimp::Ogre::ISubMesh" = type <{ i32, [4 x i8], %"class.std::__cxx11::basic_string", %"class.std::__cxx11::basic_string", %"class.std::__cxx11::basic_string", %"class.std::__cxx11::basic_string", i32, i8, [3 x i8], i32, [4 x i8] }>

; Function Attrs: mustprogress nounwind uwtable
define linkonce_odr hidden noundef nonnull align 8 dereferenceable(8) ptr @_ZNKSt6vectorIPN6Assimp4Ogre7SubMeshESaIS3_EEixEm(ptr noundef nonnull align 8 dereferenceable(24) %0, i64 noundef %1) #0 comdat align 2 {
  %3 = alloca ptr, align 8
  %4 = alloca i64, align 8
  store ptr %0, ptr %3, align 8
  store i64 %1, ptr %4, align 8
  %5 = load ptr, ptr %3, align 8
  %6 = getelementptr inbounds nuw %"struct.std::_Vector_base.55", ptr %5, i32 0, i32 0
  %7 = getelementptr inbounds nuw %"struct.std::_Vector_base<Assimp::Ogre::SubMesh *, std::allocator<Assimp::Ogre::SubMesh *>>::_Vector_impl_data", ptr %6, i32 0, i32 0
  %8 = load ptr, ptr %7, align 8
  %9 = load i64, ptr %4, align 8
  %10 = getelementptr inbounds nuw ptr, ptr %8, i64 %9
  ret ptr %10
}

; Function Attrs: mustprogress nounwind uwtable
define linkonce_odr hidden noundef i64 @_ZNKSt6vectorIPN6Assimp4Ogre7SubMeshESaIS3_EE4sizeEv(ptr noundef nonnull align 8 dereferenceable(24) %0) #0 comdat align 2 {
  %2 = alloca ptr, align 8
  store ptr %0, ptr %2, align 8
  %3 = load ptr, ptr %2, align 8
  %4 = getelementptr inbounds nuw %"struct.std::_Vector_base.55", ptr %3, i32 0, i32 0
  %5 = getelementptr inbounds nuw %"struct.std::_Vector_base<Assimp::Ogre::SubMesh *, std::allocator<Assimp::Ogre::SubMesh *>>::_Vector_impl_data", ptr %4, i32 0, i32 1
  %6 = load ptr, ptr %5, align 8
  %7 = getelementptr inbounds nuw %"struct.std::_Vector_base.55", ptr %3, i32 0, i32 0
  %8 = getelementptr inbounds nuw %"struct.std::_Vector_base<Assimp::Ogre::SubMesh *, std::allocator<Assimp::Ogre::SubMesh *>>::_Vector_impl_data", ptr %7, i32 0, i32 0
  %9 = load ptr, ptr %8, align 8
  %10 = ptrtoint ptr %6 to i64
  %11 = ptrtoint ptr %9 to i64
  %12 = sub i64 %10, %11
  %13 = sdiv exact i64 %12, 8
  ret i64 %13
}

; Function Attrs: mustprogress nounwind uwtable
define hidden noundef ptr @_ZNK6Assimp4Ogre4Mesh10GetSubMeshEm(ptr noundef nonnull align 8 dereferenceable(128) %0, i64 noundef %1) #0 align 2 {
  %3 = alloca ptr, align 8
  %4 = alloca ptr, align 8
  %5 = alloca i64, align 8
  %6 = alloca i64, align 8
  %7 = alloca i32, align 4
  store ptr %0, ptr %4, align 8
  store i64 %1, ptr %5, align 8
  %8 = load ptr, ptr %4, align 8
  call void @llvm.lifetime.start.p0(i64 8, ptr %6) #20
  store i64 0, ptr %6, align 8
  br label %9

9:                                                ; preds = %31, %2
  %10 = load i64, ptr %6, align 8
  %11 = getelementptr inbounds nuw %"class.Assimp::Ogre::Mesh", ptr %8, i32 0, i32 4
  %12 = call noundef i64 @_ZNKSt6vectorIPN6Assimp4Ogre7SubMeshESaIS3_EE4sizeEv(ptr noundef nonnull align 8 dereferenceable(24) %11) #20
  %13 = icmp ult i64 %10, %12
  br i1 %13, label %15, label %14

14:                                               ; preds = %9
  store i32 2, ptr %7, align 4
  br label %34

15:                                               ; preds = %9
  %16 = getelementptr inbounds nuw %"class.Assimp::Ogre::Mesh", ptr %8, i32 0, i32 4
  %17 = load i64, ptr %6, align 8
  %18 = call noundef nonnull align 8 dereferenceable(8) ptr @_ZNKSt6vectorIPN6Assimp4Ogre7SubMeshESaIS3_EEixEm(ptr noundef nonnull align 8 dereferenceable(24) %16, i64 noundef %17) #20
  %19 = load ptr, ptr %18, align 8
  %20 = getelementptr inbounds nuw %"class.Assimp::Ogre::ISubMesh", ptr %19, i32 0, i32 0
  %21 = load i32, ptr %20, align 8
  %22 = zext i32 %21 to i64
  %23 = load i64, ptr %5, align 8
  %24 = icmp eq i64 %22, %23
  br i1 %24, label %25, label %30

25:                                               ; preds = %15
  %26 = getelementptr inbounds nuw %"class.Assimp::Ogre::Mesh", ptr %8, i32 0, i32 4
  %27 = load i64, ptr %6, align 8
  %28 = call noundef nonnull align 8 dereferenceable(8) ptr @_ZNKSt6vectorIPN6Assimp4Ogre7SubMeshESaIS3_EEixEm(ptr noundef nonnull align 8 dereferenceable(24) %26, i64 noundef %27) #20
  %29 = load ptr, ptr %28, align 8
  store ptr %29, ptr %3, align 8
  store i32 1, ptr %7, align 4
  br label %34

30:                                               ; preds = %15
  br label %31

31:                                               ; preds = %30
  %32 = load i64, ptr %6, align 8
  %33 = add i64 %32, 1
  store i64 %33, ptr %6, align 8
  br label %9, !llvm.loop !8

34:                                               ; preds = %25, %14
  call void @llvm.lifetime.end.p0(i64 8, ptr %6) #20
  %35 = load i32, ptr %7, align 4
  switch i32 %35, label %39 [
    i32 2, label %36
    i32 1, label %37
  ]

36:                                               ; preds = %34
  store ptr null, ptr %3, align 8
  br label %37

37:                                               ; preds = %36, %34
  %38 = load ptr, ptr %3, align 8
  ret ptr %38

39:                                               ; preds = %34
  unreachable
}