; Function Attrs: mustprogress nofree norecurse nosync nounwind willreturn memory(read, inaccessiblemem: none) uwtable
define hidden noundef ptr @_ZNK6Assimp4Ogre4Mesh10GetSubMeshEm(ptr noundef nonnull readonly align 8 captures(none) dereferenceable(128) %0, i64 noundef %1) local_unnamed_addr #9 align 2 {
  %3 = getelementptr inbounds nuw i8, ptr %0, i64 56
  %4 = getelementptr inbounds nuw i8, ptr %0, i64 64
  %5 = load ptr, ptr %4, align 8
  %6 = load ptr, ptr %3, align 8
  %.not9.not = icmp eq ptr %5, %6
  br i1 %.not9.not, label %._crit_edge, label %.lr.ph.preheader

.lr.ph.preheader:                                 ; preds = %2
  %7 = ptrtoint ptr %5 to i64
  %8 = ptrtoint ptr %6 to i64
  %9 = sub i64 %7, %8
  %10 = ashr exact i64 %9, 3
  %umax = tail call i64 @llvm.umax.i64(i64 %10, i64 1)
  br label %.lr.ph

11:                                               ; preds = %.lr.ph
  %12 = add nuw i64 %.0710, 1
  %exitcond.not = icmp eq i64 %12, %umax
  br i1 %exitcond.not, label %._crit_edge, label %.lr.ph, !llvm.loop !26

.lr.ph:                                           ; preds = %.lr.ph.preheader, %11
  %.0710 = phi i64 [ %12, %11 ], [ 0, %.lr.ph.preheader ]
  %13 = getelementptr inbounds nuw ptr, ptr %6, i64 %.0710
  %14 = load ptr, ptr %13, align 8
  %15 = load i32, ptr %14, align 8
  %16 = zext i32 %15 to i64
  %17 = icmp eq i64 %1, %16
  br i1 %17, label %._crit_edge, label %11

._crit_edge:                                      ; preds = %11, %.lr.ph, %2
  %spec.select = phi ptr [ null, %2 ], [ %14, %.lr.ph ], [ null, %11 ]
  ret ptr %spec.select
}